target datalayout = "e-m:e-p270:32:32-p271:32:32-p272:64:64-i64:64-i128:128-f80:128-n8:16:32:64-S128"
target triple = "x86_64-pc-linux-gnu"

%struct.H5S_hyper_span_info_t = type { i32, ptr, ptr, [2 x %struct.H5S_hyper_op_info_t], ptr, ptr, [0 x i64] }
%struct.H5S_hyper_op_info_t = type { i64, %union.anon.1 }
%union.anon.1 = type { ptr }
%struct.H5S_hyper_span_t = type { i64, i64, ptr, ptr }

@H5S_init_g = external global i8, align 1
@H5_libterm_g = external global i8, align 1
@.str = private unnamed_addr constant [102 x i8] c"generated/home/dtcxzyw/WorkSpace/Projects/compilers/llvm-opt-benchmark/bench/hdf5/hdf5/src/H5Shyper.c\00", align 1
@H5E_DATASPACE_g = external global i64, align 8
@H5E_CANTALLOC_g = external global i64, align 8
@.str.91 = private unnamed_addr constant [30 x i8] c"can't allocate hyperslab span\00", align 1
@__func__.H5S__hyper_new_span = private unnamed_addr constant [20 x i8] c"H5S__hyper_new_span\00", align 1
@H5_H5S_hyper_span_t_reg_free_list = internal global { i8, [3 x i8], i32, i32, [4 x i8], ptr, i64, ptr } { i8 0, [3 x i8] zeroinitializer, i32 0, i32 0, [4 x i8] zeroinitializer, ptr @.str.92, i64 32, ptr null }, align 8

; Function Attrs: nounwind uwtable
define internal ptr @H5S__hyper_new_span(i64 noundef %0, i64 noundef %1, ptr noundef %2, ptr noundef %3) #0 {
  %5 = alloca i64, align 8
  %6 = alloca i64, align 8
  %7 = alloca ptr, align 8
  %8 = alloca ptr, align 8
  %9 = alloca ptr, align 8
  %10 = alloca i8, align 1
  store i64 %0, ptr %5, align 8, !tbaa !15
  store i64 %1, ptr %6, align 8, !tbaa !15
  store ptr %2, ptr %7, align 8, !tbaa !107
  store ptr %3, ptr %8, align 8, !tbaa !99
  call void @llvm.lifetime.start.p0(i64 8, ptr %9) #7
  store ptr null, ptr %9, align 8, !tbaa !99
  call void @llvm.lifetime.start.p0(i64 1, ptr %10) #7
  store i8 0, ptr %10, align 1, !tbaa !8
  %11 = load i8, ptr @H5S_init_g, align 1, !tbaa !8, !range !12, !noundef !13
  %12 = trunc i8 %11 to i1
  br i1 %12, label %17, label %13

13:                                               ; preds = %4
  %14 = load i8, ptr @H5_libterm_g, align 1, !tbaa !8, !range !12, !noundef !13
  %15 = trunc i8 %14 to i1
  %16 = xor i1 %15, true
  br label %17

17:                                               ; preds = %13, %4
  %18 = phi i1 [ true, %4 ], [ %16, %13 ]
  %19 = xor i1 %18, true
  %20 = xor i1 %19, true
  %21 = zext i1 %20 to i32
  %22 = sext i32 %21 to i64
  %23 = call i64 @llvm.expect.i64(i64 %22, i64 1)
  %24 = icmp ne i64 %23, 0
  br i1 %24, label %25, label %73

25:                                               ; preds = %17
  %26 = call noalias ptr @H5FL_reg_malloc(ptr noundef @H5_H5S_hyper_span_t_reg_free_list)
  store ptr %26, ptr %9, align 8, !tbaa !99
  %27 = icmp eq ptr null, %26
  br i1 %27, label %28, label %47

28:                                               ; preds = %25
  br label %29

29:                                               ; preds = %28
  br label %30

30:                                               ; preds = %29
  br label %31

31:                                               ; preds = %30
  %32 = load i64, ptr @H5E_DATASPACE_g, align 8, !tbaa !15
  %33 = load i64, ptr @H5E_CANTALLOC_g, align 8, !tbaa !15
  %34 = call i32 (ptr, ptr, i32, i64, i64, ptr, ...) @H5E_printf_stack(ptr noundef @.str, ptr noundef @__func__.H5S__hyper_new_span, i32 noundef 2787, i64 noundef %32, i64 noundef %33, ptr noundef @.str.91)
  br label %35

35:                                               ; preds = %31
  br label %36

36:                                               ; preds = %35
  store i8 1, ptr %10, align 1, !tbaa !8
  %37 = load i8, ptr %10, align 1, !tbaa !8, !range !12, !noundef !13
  %38 = trunc i8 %37 to i1
  %39 = zext i1 %38 to i8
  store i8 %39, ptr %10, align 1, !tbaa !8
  br label %40

40:                                               ; preds = %36
  br label %41

41:                                               ; preds = %40
  br label %42

42:                                               ; preds = %41
  store ptr null, ptr %9, align 8, !tbaa !99
  br label %72

43:                                               ; No predecessors!
  br label %44

44:                                               ; preds = %43
  br label %45

45:                                               ; preds = %44
  br label %46

46:                                               ; preds = %45
  br label %47

47:                                               ; preds = %46, %25
  %48 = load i64, ptr %5, align 8, !tbaa !15
  %49 = load ptr, ptr %9, align 8, !tbaa !99
  %50 = getelementptr inbounds nuw %struct.H5S_hyper_span_t, ptr %49, i32 0, i32 0
  store i64 %48, ptr %50, align 8, !tbaa !101
  %51 = load i64, ptr %6, align 8, !tbaa !15
  %52 = load ptr, ptr %9, align 8, !tbaa !99
  %53 = getelementptr inbounds nuw %struct.H5S_hyper_span_t, ptr %52, i32 0, i32 1
  store i64 %51, ptr %53, align 8, !tbaa !109
  %54 = load ptr, ptr %7, align 8, !tbaa !107
  %55 = load ptr, ptr %9, align 8, !tbaa !99
  %56 = getelementptr inbounds nuw %struct.H5S_hyper_span_t, ptr %55, i32 0, i32 2
  store ptr %54, ptr %56, align 8, !tbaa !103
  %57 = load ptr, ptr %8, align 8, !tbaa !99
  %58 = load ptr, ptr %9, align 8, !tbaa !99
  %59 = getelementptr inbounds nuw %struct.H5S_hyper_span_t, ptr %58, i32 0, i32 3
  store ptr %57, ptr %59, align 8, !tbaa !108
  %60 = load ptr, ptr %9, align 8, !tbaa !99
  %61 = getelementptr inbounds nuw %struct.H5S_hyper_span_t, ptr %60, i32 0, i32 2
  %62 = load ptr, ptr %61, align 8, !tbaa !103
  %63 = icmp ne ptr %62, null
  br i1 %63, label %64, label %71

64:                                               ; preds = %47
  %65 = load ptr, ptr %9, align 8, !tbaa !99
  %66 = getelementptr inbounds nuw %struct.H5S_hyper_span_t, ptr %65, i32 0, i32 2
  %67 = load ptr, ptr %66, align 8, !tbaa !103
  %68 = getelementptr inbounds nuw %struct.H5S_hyper_span_info_t, ptr %67, i32 0, i32 0
  %69 = load i32, ptr %68, align 8, !tbaa !10
  %70 = add i32 %69, 1
  store i32 %70, ptr %68, align 8, !tbaa !10
  br label %71

71:                                               ; preds = %64, %47
  br label %72

72:                                               ; preds = %71, %42
  br label %73

73:                                               ; preds = %72, %17
  %74 = load ptr, ptr %9, align 8, !tbaa !99
  call void @llvm.lifetime.end.p0(i64 1, ptr %10) #7
  call void @llvm.lifetime.end.p0(i64 8, ptr %9) #7
  ret ptr %74
}