; Function Attrs: nounwind uwtable
define internal fastcc noalias ptr @H5S__hyper_new_span(i64 noundef %0, i64 noundef %1, ptr noundef %2, ptr noundef %3) unnamed_addr #0 {
  %5 = load i8, ptr @H5S_init_g, align 1, !tbaa !3, !range !7, !noundef !8
  %6 = trunc nuw i8 %5 to i1
  %7 = load i8, ptr @H5_libterm_g, align 1, !range !7
  %8 = trunc nuw i8 %7 to i1
  %9 = xor i1 %8, true
  %10 = select i1 %6, i1 true, i1 %9
  br i1 %10, label %11, label %25, !prof !9

11:                                               ; preds = %4
  %12 = tail call noalias ptr @H5FL_reg_malloc(ptr noundef nonnull @H5_H5S_hyper_span_t_reg_free_list) #14
  %13 = icmp eq ptr %12, null
  br i1 %13, label %14, label %18

14:                                               ; preds = %11
  %15 = load i64, ptr @H5E_DATASPACE_g, align 8, !tbaa !11
  %16 = load i64, ptr @H5E_CANTALLOC_g, align 8, !tbaa !11
  %17 = tail call i32 (ptr, ptr, i32, i64, i64, ptr, ...) @H5E_printf_stack(ptr noundef nonnull @.str, ptr noundef nonnull @__func__.H5S__hyper_new_span, i32 noundef 2787, i64 noundef %15, i64 noundef %16, ptr noundef nonnull @.str.91) #14
  br label %25

18:                                               ; preds = %11
  store i64 %0, ptr %12, align 8, !tbaa !90
  %19 = getelementptr inbounds nuw i8, ptr %12, i64 8
  store i64 %1, ptr %19, align 8, !tbaa !97
  %20 = getelementptr inbounds nuw i8, ptr %12, i64 16
  store ptr %2, ptr %20, align 8, !tbaa !92
  %21 = getelementptr inbounds nuw i8, ptr %12, i64 24
  store ptr %3, ptr %21, align 8, !tbaa !96
  %.not = icmp eq ptr %2, null
  br i1 %.not, label %25, label %22

22:                                               ; preds = %18
  %23 = load i32, ptr %2, align 8, !tbaa !20
  %24 = add i32 %23, 1
  store i32 %24, ptr %2, align 8, !tbaa !20
  br label %25

25:                                               ; preds = %14, %22, %18, %4
  %.0 = phi ptr [ null, %14 ], [ %12, %22 ], [ %12, %18 ], [ null, %4 ]
  ret ptr %.0
}